target datalayout = "e-m:e-p270:32:32-p271:32:32-p272:64:64-i64:64-i128:128-f80:128-n8:16:32:64-S128"
target triple = "x86_64-pc-linux-gnu"

%struct.config_key_pair_t = type { ptr, ptr }
%struct.cron_entry_t = type { i32, ptr, ptr, ptr, ptr, ptr, ptr, ptr, i32, i32 }

@.str.46 = private unnamed_addr constant [4 x i8] c"$%s\00", align 1

; Function Attrs: nounwind uwtable
define internal i32 @_foreach_env_var_expand(ptr noundef %0, ptr noundef %1) #0 {
  %3 = alloca ptr, align 8
  %4 = alloca ptr, align 8
  %5 = alloca ptr, align 8
  %6 = alloca ptr, align 8
  %7 = alloca ptr, align 8
  store ptr %0, ptr %3, align 8
  store ptr %1, ptr %4, align 8
  call void @llvm.lifetime.start.p0(i64 8, ptr %5) #11
  store ptr null, ptr %5, align 8
  call void @llvm.lifetime.start.p0(i64 8, ptr %6) #11
  %8 = load ptr, ptr %3, align 8
  store ptr %8, ptr %6, align 8
  call void @llvm.lifetime.start.p0(i64 8, ptr %7) #11
  %9 = load ptr, ptr %4, align 8
  store ptr %9, ptr %7, align 8
  %10 = load ptr, ptr %6, align 8
  %11 = getelementptr inbounds nuw %struct.config_key_pair_t, ptr %10, i32 0, i32 0
  %12 = load ptr, ptr %11, align 8
  call void (ptr, ptr, ...) @_xstrfmtcat(ptr noundef %5, ptr noundef @.str.46, ptr noundef %12)
  %13 = load ptr, ptr %7, align 8
  %14 = getelementptr inbounds nuw %struct.cron_entry_t, ptr %13, i32 0, i32 7
  %15 = load ptr, ptr %5, align 8
  %16 = load ptr, ptr %6, align 8
  %17 = getelementptr inbounds nuw %struct.config_key_pair_t, ptr %16, i32 0, i32 1
  %18 = load ptr, ptr %17, align 8
  call void @_xstrsubstitute(ptr noundef %14, ptr noundef %15, ptr noundef %18, i1 noundef zeroext false)
  call void @slurm_xfree(ptr noundef %5)
  call void @llvm.lifetime.end.p0(i64 8, ptr %7) #11
  call void @llvm.lifetime.end.p0(i64 8, ptr %6) #11
  call void @llvm.lifetime.end.p0(i64 8, ptr %5) #11
  ret i32 0
}