; Function Attrs: nounwind uwtable
define internal noundef i32 @_foreach_env_var_expand(ptr noundef readonly captures(none) %0, ptr noundef %1) #1 {
  %3 = alloca ptr, align 8
  call void @llvm.lifetime.start.p0(i64 8, ptr nonnull %3) #16
  store ptr null, ptr %3, align 8
  %4 = load ptr, ptr %0, align 8
  call void (ptr, ptr, ...) @_xstrfmtcat(ptr noundef nonnull %3, ptr noundef nonnull @.str.46, ptr noundef %4) #16
  %5 = getelementptr inbounds nuw i8, ptr %1, i64 56
  %6 = load ptr, ptr %3, align 8
  %7 = getelementptr inbounds nuw i8, ptr %0, i64 8
  %8 = load ptr, ptr %7, align 8
  call void @_xstrsubstitute(ptr noundef nonnull %5, ptr noundef %6, ptr noundef %8, i1 noundef zeroext false) #16
  call void @slurm_xfree(ptr noundef nonnull %3) #16
  call void @llvm.lifetime.end.p0(i64 8, ptr nonnull %3) #16
  ret i32 0
}